; Function Attrs: mustprogress uwtable
define dso_local void @_ZN8V3PreLex15pushStateDefArgEi(ptr noundef nonnull align 8 dereferenceable(264) %0, i32 noundef %1) local_unnamed_addr #5 align 2 {
  %3 = load i32, ptr @_ZL18yy_start_stack_ptr, align 4, !tbaa !9
  %4 = load i32, ptr @_ZL20yy_start_stack_depth, align 4, !tbaa !9
  %.not.i = icmp slt i32 %3, %4
  %.pre.i = load ptr, ptr @_ZL14yy_start_stack, align 8, !tbaa !703
  br i1 %.not.i, label %_ZL13yy_push_statei.exit, label %5

5:                                                ; preds = %2
  %6 = add nsw i32 %4, 25
  store i32 %6, ptr @_ZL20yy_start_stack_depth, align 4, !tbaa !9
  %7 = sext i32 %6 to i64
  %8 = shl nsw i64 %7, 2
  %.not4.i = icmp eq ptr %.pre.i, null
  br i1 %.not4.i, label %9, label %11

9:                                                ; preds = %5
  %10 = tail call noalias noundef ptr @malloc(i64 noundef %8) #41
  br label %13

11:                                               ; preds = %5
  %12 = tail call noalias noundef ptr @realloc(ptr noundef nonnull %.pre.i, i64 noundef %8) #43
  br label %13

13:                                               ; preds = %11, %9
  %storemerge.i = phi ptr [ %10, %9 ], [ %12, %11 ]
  store ptr %storemerge.i, ptr @_ZL14yy_start_stack, align 8, !tbaa !703
  %.not5.i = icmp eq ptr %storemerge.i, null
  br i1 %.not5.i, label %14, label %_ZL13yy_push_statei.exit

14:                                               ; preds = %13
  tail call fastcc void @_ZL14yy_fatal_errorPKc(ptr noundef nonnull @.str.236) #42
  unreachable

_ZL13yy_push_statei.exit:                         ; preds = %2, %13
  %15 = phi ptr [ %storemerge.i, %13 ], [ %.pre.i, %2 ]
  %16 = load i32, ptr @_ZL8yy_start, align 4, !tbaa !9
  %17 = add nsw i32 %16, -1
  %18 = sdiv i32 %17, 2
  %19 = add nsw i32 %3, 1
  store i32 %19, ptr @_ZL18yy_start_stack_ptr, align 4, !tbaa !9
  %20 = sext i32 %3 to i64
  %21 = getelementptr inbounds i32, ptr %15, i64 %20
  store i32 %18, ptr %21, align 4, !tbaa !9
  store i32 3, ptr @_ZL8yy_start, align 4, !tbaa !9
  %22 = getelementptr inbounds nuw i8, ptr %0, i64 208
  store i32 %1, ptr %22, align 8, !tbaa !266
  %23 = getelementptr inbounds nuw i8, ptr %0, i64 216
  %24 = getelementptr inbounds nuw i8, ptr %0, i64 224
  %25 = load i64, ptr %24, align 8, !tbaa !115
  %26 = tail call noundef nonnull align 8 dereferenceable(32) ptr @_ZNSt7__cxx1112basic_stringIcSt11char_traitsIcESaIcEE10_M_replaceEmmPKcm(ptr noundef nonnull align 8 dereferenceable(32) %23, i64 noundef 0, i64 noundef %25, ptr noundef nonnull @.str.1, i64 noundef 0)
  ret void
}